(dp0
VPreset2
p1
(dp2
S'FixTime'
p3
cdatetime
timedelta
p4
(I0
I10
I0
tp5
Rp6
sS'FixFlowRate'
p7
I10
sS'EtOHRinseFlowRate'
p8
I5
sS'EtOHTime'
p9
g4
(I0
I7200
I0
tp10
Rp11
sS'AcetoneRinseFlowRate'
p12
I10
sS'AcetoneTime'
p13
g4
(I0
I3600
I0
tp14
Rp15
ssVPreset
p16
(dp17
g3
g4
(I0
I14400
I0
tp18
Rp19
sg7
I2
sg8
I5
sg9
g4
(I0
I14400
I0
tp20
Rp21
sg12
I10
sg13
g4
(I0
I7200
I0
tp22
Rp23
ssS'Human'
p24
(dp25
S'FixTime'
p26
g4
(I0
I10
I0
tp27
Rp28
sS'FixFlowRate'
p29
I1
sS'EtOHRinseFlowRate'
p30
I10
sS'EtOHTime'
p31
g4
(I0
I10
I0
tp32
Rp33
sS'AcetoneRinseFlowRate'
p34
I10
sS'AcetoneTime'
p35
g4
(I0
I10
I0
tp36
Rp37
ssS'Mouse'
p38
(dp39
S'FixTime'
p40
g4
(I0
I10
I0
tp41
Rp42
sS'FixFlowRate'
p43
I1
sS'EtOHRinseFlowRate'
p44
I10
sS'EtOHTime'
p45
g4
(I0
I7200
I0
tp46
Rp47
sS'AcetoneRinseFlowRate'
p48
I10
sS'AcetoneTime'
p49
g4
(I0
I10
I0
tp50
Rp51
ss.